target datalayout = "e-m:e-p270:32:32-p271:32:32-p272:64:64-i64:64-i128:128-f80:128-n8:16:32:64-S128"
target triple = "x86_64-pc-linux-gnu"

; Function Attrs: inlinehint mustprogress nounwind uwtable
define internal noundef zeroext i1 @_ZN12_GLOBAL__N_19ISNUMERICEc(i8 noundef signext %0) #2 {
  %2 = alloca i8, align 1
  store i8 %0, ptr %2, align 1, !tbaa !23
  %3 = load i8, ptr %2, align 1, !tbaa !23
  %4 = sext i8 %3 to i32
  %5 = icmp sge i32 %4, 48
  br i1 %5, label %6, label %10

6:                                                ; preds = %1
  %7 = load i8, ptr %2, align 1, !tbaa !23
  %8 = sext i8 %7 to i32
  %9 = icmp sle i32 %8, 57
  br label %10

10:                                               ; preds = %6, %1
  %11 = phi i1 [ false, %1 ], [ %9, %6 ]
  ret i1 %11
}

; Function Attrs: mustprogress uwtable
define noundef zeroext i1 @_Z27ultag_isUnicodeLocaleKey_77PKci(ptr noundef %0, i32 noundef %1) #1 {
  %3 = alloca i1, align 1
  %4 = alloca ptr, align 8
  %5 = alloca i32, align 4
  store ptr %0, ptr %4, align 8, !tbaa !17
  store i32 %1, ptr %5, align 4, !tbaa !14
  %6 = load i32, ptr %5, align 4, !tbaa !14
  %7 = icmp slt i32 %6, 0
  br i1 %7, label %8, label %12

8:                                                ; preds = %2
  %9 = load ptr, ptr %4, align 8, !tbaa !17
  %10 = call i64 @strlen(ptr noundef %9) #15
  %11 = trunc i64 %10 to i32
  store i32 %11, ptr %5, align 4, !tbaa !14
  br label %12

12:                                               ; preds = %8, %2
  %13 = load i32, ptr %5, align 4, !tbaa !14
  %14 = icmp eq i32 %13, 2
  br i1 %14, label %15, label %31

15:                                               ; preds = %12
  %16 = load ptr, ptr %4, align 8, !tbaa !17
  %17 = load i8, ptr %16, align 1, !tbaa !23
  %18 = call noundef signext i8 @uprv_isASCIILetter_77(i8 noundef signext %17)
  %19 = icmp ne i8 %18, 0
  br i1 %19, label %24, label %20

20:                                               ; preds = %15
  %21 = load ptr, ptr %4, align 8, !tbaa !17
  %22 = load i8, ptr %21, align 1, !tbaa !23
  %23 = call noundef zeroext i1 @_ZN12_GLOBAL__N_19ISNUMERICEc(i8 noundef signext %22)
  br i1 %23, label %24, label %31

24:                                               ; preds = %20, %15
  %25 = load ptr, ptr %4, align 8, !tbaa !17
  %26 = getelementptr inbounds i8, ptr %25, i64 1
  %27 = load i8, ptr %26, align 1, !tbaa !23
  %28 = call noundef signext i8 @uprv_isASCIILetter_77(i8 noundef signext %27)
  %29 = icmp ne i8 %28, 0
  br i1 %29, label %30, label %31

30:                                               ; preds = %24
  store i1 true, ptr %3, align 1
  br label %32

31:                                               ; preds = %24, %20, %12
  store i1 false, ptr %3, align 1
  br label %32

32:                                               ; preds = %31, %30
  %33 = load i1, ptr %3, align 1
  ret i1 %33
}