; Function Attrs: mustprogress uwtable
define noundef zeroext i1 @_Z27ultag_isUnicodeLocaleKey_77PKci(ptr noundef readonly captures(none) %0, i32 noundef %1) local_unnamed_addr #1 {
  %3 = icmp slt i32 %1, 0
  br i1 %3, label %4, label %7

4:                                                ; preds = %2
  %5 = tail call i64 @strlen(ptr noundef nonnull dereferenceable(1) %0) #20
  %6 = trunc i64 %5 to i32
  br label %7

7:                                                ; preds = %4, %2
  %.0 = phi i32 [ %6, %4 ], [ %1, %2 ]
  %8 = icmp eq i32 %.0, 2
  br i1 %8, label %9, label %20

9:                                                ; preds = %7
  %10 = load i8, ptr %0, align 1, !tbaa !15
  %11 = tail call noundef signext i8 @uprv_isASCIILetter_77(i8 noundef signext %10)
  %.not = icmp eq i8 %11, 0
  br i1 %.not, label %12, label %16

12:                                               ; preds = %9
  %13 = load i8, ptr %0, align 1, !tbaa !15
  %14 = add i8 %13, -48
  %15 = icmp ult i8 %14, 10
  br i1 %15, label %16, label %20

16:                                               ; preds = %12, %9
  %17 = getelementptr inbounds nuw i8, ptr %0, i64 1
  %18 = load i8, ptr %17, align 1, !tbaa !15
  %19 = tail call noundef signext i8 @uprv_isASCIILetter_77(i8 noundef signext %18)
  %.not8 = icmp eq i8 %19, 0
  br i1 %.not8, label %20, label %21

20:                                               ; preds = %16, %12, %7
  br label %21

21:                                               ; preds = %16, %20
  %.06 = phi i1 [ false, %20 ], [ true, %16 ]
  ret i1 %.06
}